target datalayout = "e-m:e-p270:32:32-p271:32:32-p272:64:64-i64:64-i128:128-f80:128-n8:16:32:64-S128"
target triple = "x86_64-pc-linux-gnu"

%"class.icu_77::UMutex" = type { [40 x i8], %"struct.std::atomic", ptr }
%"struct.std::atomic" = type { %"struct.std::__atomic_base" }
%"struct.std::__atomic_base" = type { ptr }

@_ZL13registryMutex = internal global %"class.icu_77::UMutex" zeroinitializer, align 8
@_ZL8registry = internal global ptr null, align 8

; Function Attrs: inlinehint mustprogress nounwind uwtable
define internal noundef signext i8 @_ZL9U_FAILURE10UErrorCode(i32 noundef %0) #2 {
  %2 = alloca i32, align 4
  store i32 %0, ptr %2, align 4, !tbaa !15
  %3 = load i32, ptr %2, align 4, !tbaa !15
  %4 = icmp sgt i32 %3, 0
  %5 = zext i1 %4 to i8
  ret i8 %5
}

; Function Attrs: mustprogress uwtable
define noundef ptr @_ZN6icu_7714Transliterator15getAvailableIDsER10UErrorCode(ptr noundef nonnull align 4 dereferenceable(4) %0) #1 align 2 {
  %2 = alloca ptr, align 8
  %3 = alloca ptr, align 8
  %4 = alloca ptr, align 8
  store ptr %0, ptr %3, align 8, !tbaa !22
  %5 = load ptr, ptr %3, align 8, !tbaa !22
  %6 = load i32, ptr %5, align 4, !tbaa !15
  %7 = call noundef signext i8 @_ZL9U_FAILURE10UErrorCode(i32 noundef %6)
  %8 = icmp ne i8 %7, 0
  br i1 %8, label %9, label %10

9:                                                ; preds = %1
  store ptr null, ptr %2, align 8
  br label %27

10:                                               ; preds = %1
  call void @llvm.lifetime.start.p0(i64 8, ptr %4) #15
  store ptr null, ptr %4, align 8, !tbaa !139
  call void @umtx_lock_77(ptr noundef @_ZL13registryMutex)
  %11 = load ptr, ptr @_ZL8registry, align 8, !tbaa !86
  %12 = icmp ne ptr %11, null
  br i1 %12, label %17, label %13

13:                                               ; preds = %10
  %14 = load ptr, ptr %3, align 8, !tbaa !22
  %15 = call noundef signext i8 @_ZN6icu_7714Transliterator18initializeRegistryER10UErrorCode(ptr noundef nonnull align 4 dereferenceable(4) %14)
  %16 = icmp ne i8 %15, 0
  br i1 %16, label %17, label %20

17:                                               ; preds = %13, %10
  %18 = load ptr, ptr @_ZL8registry, align 8, !tbaa !86
  %19 = call noundef ptr @_ZNK6icu_7722TransliteratorRegistry15getAvailableIDsEv(ptr noundef nonnull align 8 dereferenceable(312) %18)
  store ptr %19, ptr %4, align 8, !tbaa !139
  br label %20

20:                                               ; preds = %17, %13
  call void @umtx_unlock_77(ptr noundef @_ZL13registryMutex)
  %21 = load ptr, ptr %4, align 8, !tbaa !139
  %22 = icmp eq ptr %21, null
  br i1 %22, label %23, label %25

23:                                               ; preds = %20
  %24 = load ptr, ptr %3, align 8, !tbaa !22
  store i32 65568, ptr %24, align 4, !tbaa !15
  br label %25

25:                                               ; preds = %23, %20
  %26 = load ptr, ptr %4, align 8, !tbaa !139
  store ptr %26, ptr %2, align 8
  call void @llvm.lifetime.end.p0(i64 8, ptr %4) #15
  br label %27

27:                                               ; preds = %25, %9
  %28 = load ptr, ptr %2, align 8
  ret ptr %28
}