; Function Attrs: mustprogress uwtable
define noundef ptr @_ZN6icu_7714Transliterator15getAvailableIDsER10UErrorCode(ptr noundef nonnull align 4 dereferenceable(4) %0) local_unnamed_addr #1 align 2 {
  %2 = load i32, ptr %0, align 4, !tbaa !13
  %3 = icmp slt i32 %2, 1
  br i1 %3, label %4, label %13

4:                                                ; preds = %1
  tail call void @umtx_lock_77(ptr noundef nonnull @_ZL13registryMutex)
  %5 = load ptr, ptr @_ZL8registry, align 8, !tbaa !49
  %.not7 = icmp eq ptr %5, null
  br i1 %.not7, label %6, label %8

6:                                                ; preds = %4
  %7 = tail call noundef signext i8 @_ZN6icu_7714Transliterator18initializeRegistryER10UErrorCode(ptr noundef nonnull align 4 dereferenceable(4) %0)
  %.not8 = icmp eq i8 %7, 0
  br i1 %.not8, label %.thread, label %._crit_edge

._crit_edge:                                      ; preds = %6
  %.pre = load ptr, ptr @_ZL8registry, align 8, !tbaa !49
  br label %8

.thread:                                          ; preds = %6
  tail call void @umtx_unlock_77(ptr noundef nonnull @_ZL13registryMutex)
  br label %12

8:                                                ; preds = %._crit_edge, %4
  %9 = phi ptr [ %.pre, %._crit_edge ], [ %5, %4 ]
  %10 = tail call noundef ptr @_ZNK6icu_7722TransliteratorRegistry15getAvailableIDsEv(ptr noundef nonnull align 8 dereferenceable(312) %9)
  tail call void @umtx_unlock_77(ptr noundef nonnull @_ZL13registryMutex)
  %11 = icmp eq ptr %10, null
  br i1 %11, label %12, label %13

12:                                               ; preds = %.thread, %8
  store i32 65568, ptr %0, align 4, !tbaa !13
  br label %13

13:                                               ; preds = %8, %12, %1
  %.06 = phi ptr [ null, %1 ], [ null, %12 ], [ %10, %8 ]
  ret ptr %.06
}